; Function Attrs: nounwind uwtable
define ptr @l_List_filterMapTR_go___at_Lean_preprocessSyntaxAndResolve___spec__1(ptr noundef %0, ptr noundef %1) local_unnamed_addr #1 {
  br label %lean_dec.exit42

lean_dec.exit42:                                  ; preds = %lean_dec.exit42.backedge, %2
  %.030 = phi ptr [ %1, %2 ], [ %.030.be, %lean_dec.exit42.backedge ]
  %.0 = phi ptr [ %0, %2 ], [ %.0.be, %lean_dec.exit42.backedge ]
  %3 = ptrtoint ptr %.0 to i64
  %4 = and i64 %3, 1
  %.not.i56 = icmp eq i64 %4, 0
  br i1 %.not.i56, label %8, label %5

5:                                                ; preds = %lean_dec.exit42
  %6 = lshr i64 %3, 1
  %7 = trunc i64 %6 to i32
  br label %lean_obj_tag.exit

8:                                                ; preds = %lean_dec.exit42
  %9 = getelementptr i8, ptr %.0, i64 4
  %.val.i = load i32, ptr %9, align 4
  %10 = lshr i32 %.val.i, 24
  br label %lean_obj_tag.exit

lean_obj_tag.exit:                                ; preds = %5, %8
  %.0.i = phi i32 [ %7, %5 ], [ %10, %8 ]
  %11 = icmp eq i32 %.0.i, 0
  br i1 %11, label %12, label %14

12:                                               ; preds = %lean_obj_tag.exit
  %13 = tail call ptr @lean_array_to_list(ptr noundef %.030) #6
  ret ptr %13

14:                                               ; preds = %lean_obj_tag.exit
  %15 = getelementptr inbounds nuw i8, ptr %.0, i64 8
  %16 = load ptr, ptr %15, align 8, !tbaa !9
  %17 = ptrtoint ptr %16 to i64
  %18 = and i64 %17, 1
  %.not = icmp eq i64 %18, 0
  br i1 %.not, label %19, label %lean_obj_tag.exit62

19:                                               ; preds = %14
  %.val.i57 = load i32, ptr %16, align 4, !tbaa !4
  %20 = icmp sgt i32 %.val.i57, 0
  br i1 %20, label %21, label %23, !prof !11

21:                                               ; preds = %19
  %22 = add nuw i32 %.val.i57, 1
  store i32 %22, ptr %16, align 4, !tbaa !4
  br label %lean_obj_tag.exit62.thread

23:                                               ; preds = %19
  %.not.i58 = icmp eq i32 %.val.i57, 0
  br i1 %.not.i58, label %lean_obj_tag.exit62.thread, label %24

24:                                               ; preds = %23
  tail call void @lean_inc_ref_cold(ptr noundef nonnull %16) #6
  br label %lean_obj_tag.exit62.thread

lean_obj_tag.exit62:                              ; preds = %14
  %25 = and i64 %17, 8589934590
  %26 = icmp eq i64 %25, 0
  br i1 %26, label %lean_dec.exit43, label %52

lean_obj_tag.exit62.thread:                       ; preds = %21, %23, %24
  %27 = getelementptr i8, ptr %16, i64 4
  %.val.i61 = load i32, ptr %27, align 4
  %28 = icmp ult i32 %.val.i61, 16777216
  br i1 %28, label %.thread, label %52

.thread:                                          ; preds = %lean_obj_tag.exit62.thread
  %29 = load i32, ptr %16, align 4, !tbaa !4
  %30 = icmp sgt i32 %29, 1
  br i1 %30, label %31, label %33, !prof !11

31:                                               ; preds = %.thread
  %32 = add nsw i32 %29, -1
  store i32 %32, ptr %16, align 4, !tbaa !4
  br label %lean_dec.exit43

33:                                               ; preds = %.thread
  %.not.i = icmp eq i32 %29, 0
  br i1 %.not.i, label %lean_dec.exit43, label %34

34:                                               ; preds = %33
  tail call void @lean_dec_ref_cold(ptr noundef nonnull %16) #6
  br label %lean_dec.exit43

lean_dec.exit43:                                  ; preds = %lean_obj_tag.exit62, %34, %33, %31
  %35 = getelementptr inbounds nuw i8, ptr %.0, i64 16
  %36 = load ptr, ptr %35, align 8, !tbaa !9
  %37 = ptrtoint ptr %36 to i64
  %38 = and i64 %37, 1
  %.not93 = icmp eq i64 %38, 0
  br i1 %.not93, label %39, label %lean_inc.exit36

39:                                               ; preds = %lean_dec.exit43
  %.val.i63 = load i32, ptr %36, align 4, !tbaa !4
  %40 = icmp sgt i32 %.val.i63, 0
  br i1 %40, label %41, label %43, !prof !11

41:                                               ; preds = %39
  %42 = add nuw i32 %.val.i63, 1
  store i32 %42, ptr %36, align 4, !tbaa !4
  br label %lean_inc.exit36

43:                                               ; preds = %39
  %.not.i64 = icmp eq i32 %.val.i63, 0
  br i1 %.not.i64, label %lean_inc.exit36, label %44

44:                                               ; preds = %43
  tail call void @lean_inc_ref_cold(ptr noundef nonnull %36) #6
  br label %lean_inc.exit36

lean_inc.exit36:                                  ; preds = %44, %43, %41, %lean_dec.exit43
  br i1 %.not.i56, label %45, label %lean_dec.exit42.backedge

45:                                               ; preds = %lean_inc.exit36
  %46 = load i32, ptr %.0, align 4, !tbaa !4
  %47 = icmp sgt i32 %46, 1
  br i1 %47, label %48, label %50, !prof !11

48:                                               ; preds = %45
  %49 = add nsw i32 %46, -1
  store i32 %49, ptr %.0, align 4, !tbaa !4
  br label %lean_dec.exit42.backedge

50:                                               ; preds = %45
  %.not.i44 = icmp eq i32 %46, 0
  br i1 %.not.i44, label %lean_dec.exit42.backedge, label %51

51:                                               ; preds = %50
  tail call void @lean_dec_ref_cold(ptr noundef nonnull %.0) #6
  br label %lean_dec.exit42.backedge

52:                                               ; preds = %lean_obj_tag.exit62.thread, %lean_obj_tag.exit62
  %53 = getelementptr inbounds nuw i8, ptr %16, i64 8
  %54 = getelementptr inbounds nuw i8, ptr %16, i64 16
  %55 = load ptr, ptr %54, align 8, !tbaa !9
  %56 = ptrtoint ptr %55 to i64
  %57 = and i64 %56, 1
  %.not87 = icmp eq i64 %57, 0
  br i1 %.not87, label %58, label %lean_obj_tag.exit72

58:                                               ; preds = %52
  %.val.i66 = load i32, ptr %55, align 4, !tbaa !4
  %59 = icmp sgt i32 %.val.i66, 0
  br i1 %59, label %60, label %62, !prof !11

60:                                               ; preds = %58
  %61 = add nuw i32 %.val.i66, 1
  store i32 %61, ptr %55, align 4, !tbaa !4
  br label %lean_obj_tag.exit72.thread

62:                                               ; preds = %58
  %.not.i67 = icmp eq i32 %.val.i66, 0
  br i1 %.not.i67, label %lean_obj_tag.exit72.thread, label %63

63:                                               ; preds = %62
  tail call void @lean_inc_ref_cold(ptr noundef nonnull %55) #6
  br label %lean_obj_tag.exit72.thread

lean_obj_tag.exit72:                              ; preds = %52
  %64 = and i64 %56, 8589934590
  %65 = icmp eq i64 %64, 0
  br i1 %65, label %68, label %lean_dec.exit39

lean_obj_tag.exit72.thread:                       ; preds = %60, %62, %63
  %66 = getelementptr i8, ptr %55, i64 4
  %.val.i71 = load i32, ptr %66, align 4
  %67 = icmp ult i32 %.val.i71, 16777216
  br i1 %67, label %68, label %.thread86

68:                                               ; preds = %lean_obj_tag.exit72.thread, %lean_obj_tag.exit72
  %69 = getelementptr inbounds nuw i8, ptr %.0, i64 16
  %70 = load ptr, ptr %69, align 8, !tbaa !9
  %71 = ptrtoint ptr %70 to i64
  %72 = and i64 %71, 1
  %.not90 = icmp eq i64 %72, 0
  br i1 %.not90, label %73, label %lean_inc.exit34

73:                                               ; preds = %68
  %.val.i73 = load i32, ptr %70, align 4, !tbaa !4
  %74 = icmp sgt i32 %.val.i73, 0
  br i1 %74, label %75, label %77, !prof !11

75:                                               ; preds = %73
  %76 = add nuw i32 %.val.i73, 1
  store i32 %76, ptr %70, align 4, !tbaa !4
  br label %lean_inc.exit34

77:                                               ; preds = %73
  %.not.i74 = icmp eq i32 %.val.i73, 0
  br i1 %.not.i74, label %lean_inc.exit34, label %78

78:                                               ; preds = %77
  tail call void @lean_inc_ref_cold(ptr noundef nonnull %70) #6
  br label %lean_inc.exit34

lean_inc.exit34:                                  ; preds = %78, %77, %75, %68
  br i1 %.not.i56, label %79, label %lean_dec.exit41

79:                                               ; preds = %lean_inc.exit34
  %80 = load i32, ptr %.0, align 4, !tbaa !4
  %81 = icmp sgt i32 %80, 1
  br i1 %81, label %82, label %84, !prof !11

82:                                               ; preds = %79
  %83 = add nsw i32 %80, -1
  store i32 %83, ptr %.0, align 4, !tbaa !4
  br label %lean_dec.exit41

84:                                               ; preds = %79
  %.not.i46 = icmp eq i32 %80, 0
  br i1 %.not.i46, label %lean_dec.exit41, label %85

85:                                               ; preds = %84
  tail call void @lean_dec_ref_cold(ptr noundef nonnull %.0) #6
  br label %lean_dec.exit41

lean_dec.exit41:                                  ; preds = %85, %84, %82, %lean_inc.exit34
  %86 = load ptr, ptr %53, align 8, !tbaa !9
  %87 = ptrtoint ptr %86 to i64
  %88 = and i64 %87, 1
  %.not92 = icmp eq i64 %88, 0
  br i1 %.not92, label %89, label %lean_inc.exit33

89:                                               ; preds = %lean_dec.exit41
  %.val.i76 = load i32, ptr %86, align 4, !tbaa !4
  %90 = icmp sgt i32 %.val.i76, 0
  br i1 %90, label %91, label %93, !prof !11

91:                                               ; preds = %89
  %92 = add nuw i32 %.val.i76, 1
  store i32 %92, ptr %86, align 4, !tbaa !4
  br label %lean_inc.exit33

93:                                               ; preds = %89
  %.not.i77 = icmp eq i32 %.val.i76, 0
  br i1 %.not.i77, label %lean_inc.exit33, label %94

94:                                               ; preds = %93
  tail call void @lean_inc_ref_cold(ptr noundef nonnull %86) #6
  br label %lean_inc.exit33

lean_inc.exit33:                                  ; preds = %94, %93, %91, %lean_dec.exit41
  br i1 %.not, label %95, label %lean_dec.exit40

95:                                               ; preds = %lean_inc.exit33
  %96 = load i32, ptr %16, align 4, !tbaa !4
  %97 = icmp sgt i32 %96, 1
  br i1 %97, label %98, label %100, !prof !11

98:                                               ; preds = %95
  %99 = add nsw i32 %96, -1
  store i32 %99, ptr %16, align 4, !tbaa !4
  br label %lean_dec.exit40

100:                                              ; preds = %95
  %.not.i48 = icmp eq i32 %96, 0
  br i1 %.not.i48, label %lean_dec.exit40, label %101

101:                                              ; preds = %100
  tail call void @lean_dec_ref_cold(ptr noundef nonnull %16) #6
  br label %lean_dec.exit40

lean_dec.exit40:                                  ; preds = %101, %100, %98, %lean_inc.exit33
  %102 = tail call ptr @lean_array_push(ptr noundef %.030, ptr noundef %86) #6
  br label %lean_dec.exit42.backedge

.thread86:                                        ; preds = %lean_obj_tag.exit72.thread
  %103 = load i32, ptr %55, align 4, !tbaa !4
  %104 = icmp sgt i32 %103, 1
  br i1 %104, label %105, label %107, !prof !11

105:                                              ; preds = %.thread86
  %106 = add nsw i32 %103, -1
  store i32 %106, ptr %55, align 4, !tbaa !4
  br label %lean_dec.exit39

107:                                              ; preds = %.thread86
  %.not.i50 = icmp eq i32 %103, 0
  br i1 %.not.i50, label %lean_dec.exit39, label %108

108:                                              ; preds = %107
  tail call void @lean_dec_ref_cold(ptr noundef nonnull %55) #6
  br label %lean_dec.exit39

lean_dec.exit39:                                  ; preds = %lean_obj_tag.exit72, %108, %107, %105
  br i1 %.not, label %109, label %lean_dec.exit38

109:                                              ; preds = %lean_dec.exit39
  %110 = load i32, ptr %16, align 4, !tbaa !4
  %111 = icmp sgt i32 %110, 1
  br i1 %111, label %112, label %114, !prof !11

112:                                              ; preds = %109
  %113 = add nsw i32 %110, -1
  store i32 %113, ptr %16, align 4, !tbaa !4
  br label %lean_dec.exit38

114:                                              ; preds = %109
  %.not.i52 = icmp eq i32 %110, 0
  br i1 %.not.i52, label %lean_dec.exit38, label %115

115:                                              ; preds = %114
  tail call void @lean_dec_ref_cold(ptr noundef nonnull %16) #6
  br label %lean_dec.exit38

lean_dec.exit38:                                  ; preds = %115, %114, %112, %lean_dec.exit39
  %116 = getelementptr inbounds nuw i8, ptr %.0, i64 16
  %117 = load ptr, ptr %116, align 8, !tbaa !9
  %118 = ptrtoint ptr %117 to i64
  %119 = and i64 %118, 1
  %.not88 = icmp eq i64 %119, 0
  br i1 %.not88, label %120, label %lean_inc.exit

120:                                              ; preds = %lean_dec.exit38
  %.val.i79 = load i32, ptr %117, align 4, !tbaa !4
  %121 = icmp sgt i32 %.val.i79, 0
  br i1 %121, label %122, label %124, !prof !11

122:                                              ; preds = %120
  %123 = add nuw i32 %.val.i79, 1
  store i32 %123, ptr %117, align 4, !tbaa !4
  br label %lean_inc.exit

124:                                              ; preds = %120
  %.not.i80 = icmp eq i32 %.val.i79, 0
  br i1 %.not.i80, label %lean_inc.exit, label %125

125:                                              ; preds = %124
  tail call void @lean_inc_ref_cold(ptr noundef nonnull %117) #6
  br label %lean_inc.exit

lean_inc.exit:                                    ; preds = %125, %124, %122, %lean_dec.exit38
  br i1 %.not.i56, label %126, label %lean_dec.exit42.backedge

lean_dec.exit42.backedge:                         ; preds = %lean_inc.exit, %129, %131, %132, %lean_inc.exit36, %48, %50, %51, %lean_dec.exit40
  %.030.be = phi ptr [ %102, %lean_dec.exit40 ], [ %.030, %51 ], [ %.030, %50 ], [ %.030, %48 ], [ %.030, %lean_inc.exit36 ], [ %.030, %132 ], [ %.030, %131 ], [ %.030, %129 ], [ %.030, %lean_inc.exit ]
  %.0.be = phi ptr [ %70, %lean_dec.exit40 ], [ %36, %51 ], [ %36, %50 ], [ %36, %48 ], [ %36, %lean_inc.exit36 ], [ %117, %132 ], [ %117, %131 ], [ %117, %129 ], [ %117, %lean_inc.exit ]
  br label %lean_dec.exit42

126:                                              ; preds = %lean_inc.exit
  %127 = load i32, ptr %.0, align 4, !tbaa !4
  %128 = icmp sgt i32 %127, 1
  br i1 %128, label %129, label %131, !prof !11

129:                                              ; preds = %126
  %130 = add nsw i32 %127, -1
  store i32 %130, ptr %.0, align 4, !tbaa !4
  br label %lean_dec.exit42.backedge

131:                                              ; preds = %126
  %.not.i54 = icmp eq i32 %127, 0
  br i1 %.not.i54, label %lean_dec.exit42.backedge, label %132

132:                                              ; preds = %131
  tail call void @lean_dec_ref_cold(ptr noundef nonnull %.0) #6
  br label %lean_dec.exit42.backedge
}